; ModuleID = '28/1693.c'
source_filename = "28/1693.c"
target datalayout = "e-m:e-p270:32:32-p271:32:32-p272:64:64-i64:64-f80:128-n8:16:32:64-S128"
target triple = "x86_64-pc-linux-gnu"

@.str = private unnamed_addr constant [4 x i8] c"%d,\00", align 1
@.str.1 = private unnamed_addr constant [3 x i8] c"%d\00", align 1

; Function Attrs: noinline nounwind uwtable
define dso_local void @main() #0 {
  %1 = alloca [3000 x i8], align 16
  %2 = alloca i32, align 4
  %3 = alloca i32, align 4
  %4 = alloca i32, align 4
  %5 = alloca [300 x i32], align 16
  %6 = alloca i8, align 1
  store i32 0, i32* %3, align 4
  store i32 0, i32* %4, align 4
  %7 = getelementptr inbounds [3000 x i8], [3000 x i8]* %1, i64 0, i64 0
  %8 = call i32 (i8*, ...) bitcast (i32 (...)* @gets to i32 (i8*, ...)*)(i8* %7)
  store i32 0, i32* %2, align 4
  br label %9

9:                                                ; preds = %44, %0
  %10 = load i32, i32* %2, align 4
  %11 = sext i32 %10 to i64
  %12 = getelementptr inbounds [3000 x i8], [3000 x i8]* %1, i64 0, i64 %11
  %13 = load i8, i8* %12, align 1
  store i8 %13, i8* %6, align 1
  %14 = sext i8 %13 to i32
  %15 = icmp ne i32 %14, 0
  br i1 %15, label %16, label %47

16:                                               ; preds = %9
  %17 = load i8, i8* %6, align 1
  %18 = sext i8 %17 to i32
  %19 = icmp ne i32 %18, 32
  br i1 %19, label %20, label %23

20:                                               ; preds = %16
  %21 = load i32, i32* %4, align 4
  %22 = add nsw i32 %21, 1
  store i32 %22, i32* %4, align 4
  br label %43

23:                                               ; preds = %16
  %24 = load i8, i8* %6, align 1
  %25 = sext i8 %24 to i32
  %26 = icmp eq i32 %25, 32
  br i1 %26, label %27, label %42

27:                                               ; preds = %23
  %28 = load i32, i32* %2, align 4
  %29 = add nsw i32 %28, 1
  %30 = sext i32 %29 to i64
  %31 = getelementptr inbounds [3000 x i8], [3000 x i8]* %1, i64 0, i64 %30
  %32 = load i8, i8* %31, align 1
  %33 = sext i8 %32 to i32
  %34 = icmp ne i32 %33, 32
  br i1 %34, label %35, label %42

35:                                               ; preds = %27
  %36 = load i32, i32* %4, align 4
  %37 = load i32, i32* %3, align 4
  %38 = sext i32 %37 to i64
  %39 = getelementptr inbounds [300 x i32], [300 x i32]* %5, i64 0, i64 %38
  store i32 %36, i32* %39, align 4
  %40 = load i32, i32* %3, align 4
  %41 = add nsw i32 %40, 1
  store i32 %41, i32* %3, align 4
  store i32 0, i32* %4, align 4
  br label %42

42:                                               ; preds = %35, %27, %23
  br label %43

43:                                               ; preds = %42, %20
  br label %44

44:                                               ; preds = %43
  %45 = load i32, i32* %2, align 4
  %46 = add nsw i32 %45, 1
  store i32 %46, i32* %2, align 4
  br label %9

47:                                               ; preds = %9
  %48 = load i32, i32* %4, align 4
  %49 = load i32, i32* %3, align 4
  %50 = sext i32 %49 to i64
  %51 = getelementptr inbounds [300 x i32], [300 x i32]* %5, i64 0, i64 %50
  store i32 %48, i32* %51, align 4
  store i32 0, i32* %2, align 4
  br label %52

52:                                               ; preds = %69, %47
  %53 = load i32, i32* %2, align 4
  %54 = load i32, i32* %3, align 4
  %55 = icmp slt i32 %53, %54
  br i1 %55, label %56, label %72

56:                                               ; preds = %52
  %57 = load i32, i32* %2, align 4
  %58 = sext i32 %57 to i64
  %59 = getelementptr inbounds [300 x i32], [300 x i32]* %5, i64 0, i64 %58
  %60 = load i32, i32* %59, align 4
  %61 = icmp ne i32 %60, 0
  br i1 %61, label %62, label %68

62:                                               ; preds = %56
  %63 = load i32, i32* %2, align 4
  %64 = sext i32 %63 to i64
  %65 = getelementptr inbounds [300 x i32], [300 x i32]* %5, i64 0, i64 %64
  %66 = load i32, i32* %65, align 4
  %67 = call i32 (i8*, ...) @printf(i8* getelementptr inbounds ([4 x i8], [4 x i8]* @.str, i64 0, i64 0), i32 %66)
  br label %68

68:                                               ; preds = %62, %56
  br label %69

69:                                               ; preds = %68
  %70 = load i32, i32* %2, align 4
  %71 = add nsw i32 %70, 1
  store i32 %71, i32* %2, align 4
  br label %52

72:                                               ; preds = %52
  %73 = load i32, i32* %3, align 4
  %74 = sext i32 %73 to i64
  %75 = getelementptr inbounds [300 x i32], [300 x i32]* %5, i64 0, i64 %74
  %76 = load i32, i32* %75, align 4
  %77 = call i32 (i8*, ...) @printf(i8* getelementptr inbounds ([3 x i8], [3 x i8]* @.str.1, i64 0, i64 0), i32 %76)
  ret void
}

declare dso_local i32 @gets(...) #1

declare dso_local i32 @printf(i8*, ...) #1


!llvm.module.flags = !{!0}
!llvm.ident = !{!1}

!0 = !{i32 1, !"wchar_size", i32 4}
!1 = !{!"clang version 10.0.0-4ubuntu1 "}
