; ModuleID = 'source-C-CXX/27/1693.c'
source_filename = "source-C-CXX/27/1693.c"
target datalayout = "e-m:e-p270:32:32-p271:32:32-p272:64:64-i64:64-f80:128-n8:16:32:64-S128"
target triple = "x86_64-pc-linux-gnu"

@.str = private unnamed_addr constant [4 x i8] c"%d,\00", align 1
@.str.1 = private unnamed_addr constant [3 x i8] c"%d\00", align 1

; Function Attrs: nounwind sspstrong uwtable
define dso_local void @main() local_unnamed_addr #0 {
  %1 = alloca [3000 x i8], align 16
  %2 = alloca [300 x i32], align 16
  %3 = getelementptr inbounds [3000 x i8], [3000 x i8]* %1, i64 0, i64 0
  call void @llvm.lifetime.start.p0i8(i64 3000, i8* nonnull %3) #4
  %4 = bitcast [300 x i32]* %2 to i8*
  call void @llvm.lifetime.start.p0i8(i64 1200, i8* nonnull %4) #4
  %5 = call i32 (i8*, ...) bitcast (i32 (...)* @gets to i32 (i8*, ...)*)(i8* nonnull %3) #4
  br label %6

6:                                                ; preds = %24, %0
  %7 = phi i64 [ %20, %24 ], [ 0, %0 ]
  %8 = phi i32 [ %27, %24 ], [ 0, %0 ]
  br label %9

9:                                                ; preds = %6, %16
  %10 = phi i64 [ %7, %6 ], [ %18, %16 ]
  %11 = phi i32 [ 0, %6 ], [ %17, %16 ]
  br label %12

12:                                               ; preds = %9, %19
  %13 = phi i64 [ %20, %19 ], [ %10, %9 ]
  %14 = getelementptr inbounds [3000 x i8], [3000 x i8]* %1, i64 0, i64 %13
  %15 = load i8, i8* %14, align 1, !tbaa !5
  switch i8 %15, label %16 [
    i8 0, label %28
    i8 32, label %19
  ]

16:                                               ; preds = %12
  %17 = add nuw nsw i32 %11, 1
  %18 = add nuw i64 %13, 1
  br label %9, !llvm.loop !8

19:                                               ; preds = %12
  %20 = add nuw i64 %13, 1
  %21 = getelementptr inbounds [3000 x i8], [3000 x i8]* %1, i64 0, i64 %20
  %22 = load i8, i8* %21, align 1, !tbaa !5
  %23 = icmp eq i8 %22, 32
  br i1 %23, label %12, label %24, !llvm.loop !8

24:                                               ; preds = %19
  %25 = zext i32 %8 to i64
  %26 = getelementptr inbounds [300 x i32], [300 x i32]* %2, i64 0, i64 %25
  store i32 %11, i32* %26, align 4, !tbaa !10
  %27 = add nuw nsw i32 %8, 1
  br label %6, !llvm.loop !8

28:                                               ; preds = %12
  %29 = zext i32 %8 to i64
  %30 = getelementptr inbounds [300 x i32], [300 x i32]* %2, i64 0, i64 %29
  store i32 %11, i32* %30, align 4, !tbaa !10
  %31 = icmp eq i32 %8, 0
  br i1 %31, label %44, label %32

32:                                               ; preds = %28
  %33 = zext i32 %8 to i64
  br label %34

34:                                               ; preds = %32, %41
  %35 = phi i64 [ 0, %32 ], [ %42, %41 ]
  %36 = getelementptr inbounds [300 x i32], [300 x i32]* %2, i64 0, i64 %35
  %37 = load i32, i32* %36, align 4, !tbaa !10
  %38 = icmp eq i32 %37, 0
  br i1 %38, label %41, label %39

39:                                               ; preds = %34
  %40 = call i32 (i8*, ...) @printf(i8* nonnull dereferenceable(1) getelementptr inbounds ([4 x i8], [4 x i8]* @.str, i64 0, i64 0), i32 %37)
  br label %41

41:                                               ; preds = %34, %39
  %42 = add nuw nsw i64 %35, 1
  %43 = icmp eq i64 %42, %33
  br i1 %43, label %44, label %34, !llvm.loop !12

44:                                               ; preds = %41, %28
  %45 = call i32 (i8*, ...) @printf(i8* nonnull dereferenceable(1) getelementptr inbounds ([3 x i8], [3 x i8]* @.str.1, i64 0, i64 0), i32 %11)
  call void @llvm.lifetime.end.p0i8(i64 1200, i8* nonnull %4) #4
  call void @llvm.lifetime.end.p0i8(i64 3000, i8* nonnull %3) #4
  ret void
}

; Function Attrs: argmemonly mustprogress nofree nosync nounwind willreturn
declare void @llvm.lifetime.start.p0i8(i64 immarg, i8* nocapture) #1

declare i32 @gets(...) local_unnamed_addr #2

; Function Attrs: nofree nounwind
declare noundef i32 @printf(i8* nocapture noundef readonly, ...) local_unnamed_addr #3

; Function Attrs: argmemonly mustprogress nofree nosync nounwind willreturn
declare void @llvm.lifetime.end.p0i8(i64 immarg, i8* nocapture) #1


!llvm.module.flags = !{!0, !1, !2, !3}
!llvm.ident = !{!4}

!0 = !{i32 1, !"wchar_size", i32 4}
!1 = !{i32 7, !"PIC Level", i32 2}
!2 = !{i32 7, !"PIE Level", i32 2}
!3 = !{i32 7, !"uwtable", i32 1}
!4 = !{!"clang version 13.0.0"}
!5 = !{!6, !6, i64 0}
!6 = !{!"omnipotent char", !7, i64 0}
!7 = !{!"Simple C/C++ TBAA"}
!8 = distinct !{!8, !9}
!9 = !{!"llvm.loop.mustprogress"}
!10 = !{!11, !11, i64 0}
!11 = !{!"int", !6, i64 0}
!12 = distinct !{!12, !9}
